Certificate:
    Data:
        Version: 3 (0x2)
        Serial Number: 1 (0x1)
    Signature Algorithm: sha1WithRSAEncryption
        Issuer: CN=My Own Certificate Authority, ST=Brno, C=CZ/emailAddress=436273@mail.muni.cz, O=MasarykUniversity, OU=FI
        Validity
            Not Before: Nov 10 03:49:09 2014 GMT
            Not After : Nov  9 03:49:09 2019 GMT
        Subject: CN=aisa.fi.muni.cz, ST=Brno, C=CZ/emailAddress=436273@mail.muni.cz, O=MU, OU=FI
        Subject Public Key Info:
            Public Key Algorithm: rsaEncryption
                Public-Key: (1024 bit)
                Modulus:
                    00:b6:aa:93:c2:ff:1d:a1:52:03:8f:72:72:53:7e:
                    fe:d6:56:84:6d:f4:6f:02:e8:2a:8a:07:d0:cb:d3:
                    f9:bb:6d:7c:44:ec:b8:fc:eb:54:83:4e:e7:07:bc:
                    bc:a9:03:e2:69:76:f3:5d:99:7d:64:57:ba:f3:8b:
                    29:41:c8:c2:11:65:f0:73:e0:de:3e:4a:12:37:cf:
                    3d:7f:61:65:c3:a6:ab:03:1b:75:43:c3:a3:71:f2:
                    49:08:eb:42:8f:6e:01:a4:0a:0a:c2:ce:a1:b8:67:
                    1f:a4:23:3c:f3:6e:c7:28:80:e2:b6:f3:08:b7:97:
                    5e:df:5f:7a:c1:06:4b:46:05
                Exponent: 65537 (0x10001)
        X509v3 extensions:
            X509v3 Basic Constraints: 
                CA:FALSE
            X509v3 Key Usage: 
                Digital Signature, Non Repudiation, Key Encipherment
    Signature Algorithm: sha1WithRSAEncryption
         c5:c7:fd:55:9f:fc:2d:99:dd:3b:8c:e5:ca:9e:2f:a5:a0:be:
         00:83:fc:b9:2b:ea:53:c6:b8:72:93:c2:df:9e:77:63:b5:1d:
         93:c6:8a:d1:7c:98:fe:88:7d:48:b7:87:57:6b:a3:c9:de:5e:
         eb:c6:d7:00:e6:cf:de:f7:92:4c:b2:f2:ad:4d:16:5b:ee:2a:
         75:00:f2:77:6f:cf:c9:35:65:cf:82:4d:b0:d2:7d:20:8b:44:
         56:55:17:a4:67:be:48:29:c4:d1:af:99:36:14:a1:c9:a2:d9:
         b1:c7:86:b6:89:84:b5:50:cf:98:d7:24:25:46:36:d9:c4:fe:
         41:a3:2b:f1:9a:6e:ee:15:79:ad:2d:68:38:f7:16:62:da:06:
         98:e9:cd:e5:f4:83:c3:70:94:43:d7:2b:6f:23:00:8b:38:dd:
         40:25:9e:27:1c:21:19:e8:1d:8a:00:95:d0:07:df:84:07:e2:
         bd:88:e8:61:ec:b6:09:44:1c:e1:14:0f:12:81:91:6e:c3:39:
         df:02:86:c7:da:24:60:5a:4a:a5:d6:52:37:8a:41:03:ad:9e:
         6d:c0:07:ee:c9:67:63:ce:7f:72:9c:a8:41:2b:6d:ee:1b:29:
         be:72:ae:e5:85:62:2d:bd:28:80:2d:03:90:3b:1f:e8:09:db:
         60:3d:cb:6b
-----BEGIN CERTIFICATE-----
MIIDFjCCAf6gAwIBAgIBATANBgkqhkiG9w0BAQUFADCBkDElMCMGA1UEAxMcTXkg
T3duIENlcnRpZmljYXRlIEF1dGhvcml0eTENMAsGA1UECBMEQnJubzELMAkGA1UE
BhMCQ1oxIjAgBgkqhkiG9w0BCQEWEzQzNjI3M0BtYWlsLm11bmkuY3oxGjAYBgNV
BAoTEU1hc2FyeWtVbml2ZXJzaXR5MQswCQYDVQQLEwJGSTAeFw0xNDExMTAwMzQ5
MDlaFw0xOTExMDkwMzQ5MDlaMHQxGDAWBgNVBAMTD2Fpc2EuZmkubXVuaS5jejEN
MAsGA1UECBMEQnJubzELMAkGA1UEBhMCQ1oxIjAgBgkqhkiG9w0BCQEWEzQzNjI3
M0BtYWlsLm11bmkuY3oxCzAJBgNVBAoTAk1VMQswCQYDVQQLEwJGSTCBnzANBgkq
hkiG9w0BAQEFAAOBjQAwgYkCgYEAtqqTwv8doVIDj3JyU37+1laEbfRvAugqigfQ
y9P5u218ROy4/OtUg07nB7y8qQPiaXbzXZl9ZFe684spQcjCEWXwc+DePkoSN889
f2Flw6arAxt1Q8OjcfJJCOtCj24BpAoKws6huGcfpCM8827HKIDitvMIt5de3196
wQZLRgUCAwEAAaMaMBgwCQYDVR0TBAIwADALBgNVHQ8EBAMCBeAwDQYJKoZIhvcN
AQEFBQADggEBAMXH/VWf/C2Z3TuM5cqeL6WgvgCD/Lkr6lPGuHKTwt+ed2O1HZPG
itF8mP6IfUi3h1dro8neXuvG1wDmz973kkyy8q1NFlvuKnUA8ndvz8k1Zc+CTbDS
fSCLRFZVF6RnvkgpxNGvmTYUocmi2bHHhraJhLVQz5jXJCVGNtnE/kGjK/Gabu4V
ea0taDj3FmLaBpjpzeX0g8NwlEPXK28jAIs43UAlniccIRnoHYoAldAH34QH4r2I
6GHstglEHOEUDxKBkW7DOd8ChsfaJGBaSqXWUjeKQQOtnm3AB+7JZ2POf3KcqEEr
be4bKb5yruWFYi29KIAtA5A7H+gJ22A9y2s=
-----END CERTIFICATE-----
