Certificate:
    Data:
        Version: 3 (0x2)
        Serial Number: 2 (0x2)
    Signature Algorithm: sha1WithRSAEncryption
        Issuer: CN=My Own Certificate Authority, ST=Brno, C=CZ/emailAddress=436273@mail.muni.cz, O=MasarykUniversity, OU=FI
        Validity
            Not Before: Nov 11 11:39:41 2014 GMT
            Not After : Nov 10 11:39:41 2019 GMT
        Subject: CN=ClientA, ST=Brno, C=CZ/emailAddress=436265@mail.muni.cz, O=MU, OU=M\x08FI
        Subject Public Key Info:
            Public Key Algorithm: rsaEncryption
                Public-Key: (1024 bit)
                Modulus:
                    00:b6:de:af:d3:5d:5c:7d:ab:fc:f0:83:b7:5e:c6:
                    45:43:bc:f9:e1:9e:16:c6:2a:bb:6d:b6:6e:4b:e9:
                    67:ba:50:bc:d9:48:6c:2a:f4:d8:20:99:d3:d0:f1:
                    4d:fb:24:6c:d4:66:81:39:7f:b4:4d:fe:61:d0:09:
                    d0:16:70:cd:99:96:e5:dd:f6:08:01:26:05:65:fc:
                    3a:fe:05:77:59:89:82:04:c8:59:72:04:4b:be:74:
                    97:c2:db:75:64:40:0c:94:da:bf:6b:bf:c5:18:80:
                    ed:1a:4e:ee:02:f0:e1:bd:68:d7:50:30:6f:e8:a4:
                    c0:ad:b5:45:26:b1:62:7b:25
                Exponent: 65537 (0x10001)
        X509v3 extensions:
            X509v3 Basic Constraints: 
                CA:FALSE
    Signature Algorithm: sha1WithRSAEncryption
         86:11:34:24:97:85:99:32:ad:a1:6d:df:58:c2:9c:22:b4:64:
         95:ed:71:46:69:f4:79:66:25:c0:70:b0:e8:e4:21:6f:2c:00:
         f2:3a:7f:6e:d6:67:83:14:dd:71:ee:33:d8:e1:f3:22:bf:4f:
         8c:3f:66:09:bc:96:22:2e:58:f8:88:5a:eb:0f:93:e8:07:37:
         81:cd:ae:58:eb:60:40:c0:7d:6b:6f:29:7d:a2:bf:67:a8:9b:
         e0:4a:68:22:22:8a:d9:f9:82:82:ba:23:9c:54:df:0a:46:d3:
         25:cb:94:4c:7d:80:4a:40:6f:52:45:63:0f:c0:84:95:20:8c:
         41:50:72:8d:95:b1:6b:77:e3:c4:c2:88:84:f3:bb:ab:8d:5b:
         3f:af:84:d5:9a:7e:1f:5c:85:83:a6:53:59:41:d0:85:24:92:
         fd:23:7d:90:af:28:30:1e:56:e0:dc:31:54:99:97:9e:3e:3c:
         c6:e5:c9:46:e5:79:85:11:6e:ab:a1:ac:84:81:ea:b0:20:c7:
         a4:ea:69:f2:5f:e1:08:4e:3a:f1:3a:74:77:d3:9d:b0:35:79:
         31:ce:29:78:b8:e6:7a:32:fc:c0:0d:3b:30:96:63:33:eb:5a:
         d2:90:7d:ce:ba:d9:59:c5:ff:29:ec:e6:67:f7:b0:88:aa:c7:
         8a:e7:6b:a5
-----BEGIN CERTIFICATE-----
MIIDAzCCAeugAwIBAgIBAjANBgkqhkiG9w0BAQUFADCBkDElMCMGA1UEAxMcTXkg
T3duIENlcnRpZmljYXRlIEF1dGhvcml0eTENMAsGA1UECBMEQnJubzELMAkGA1UE
BhMCQ1oxIjAgBgkqhkiG9w0BCQEWEzQzNjI3M0BtYWlsLm11bmkuY3oxGjAYBgNV
BAoTEU1hc2FyeWtVbml2ZXJzaXR5MQswCQYDVQQLEwJGSTAeFw0xNDExMTExMTM5
NDFaFw0xOTExMTAxMTM5NDFaMG4xEDAOBgNVBAMMB0NsaWVudEExDTALBgNVBAgM
BEJybm8xCzAJBgNVBAYTAkNaMSIwIAYJKoZIhvcNAQkBFhM0MzYyNjVAbWFpbC5t
dW5pLmN6MQswCQYDVQQKDAJNVTENMAsGA1UECwwETQhGSTCBnzANBgkqhkiG9w0B
AQEFAAOBjQAwgYkCgYEAtt6v011cfav88IO3XsZFQ7z54Z4Wxiq7bbZuS+lnulC8
2UhsKvTYIJnT0PFN+yRs1GaBOX+0Tf5h0AnQFnDNmZbl3fYIASYFZfw6/gV3WYmC
BMhZcgRLvnSXwtt1ZEAMlNq/a7/FGIDtGk7uAvDhvWjXUDBv6KTArbVFJrFieyUC
AwEAAaMNMAswCQYDVR0TBAIwADANBgkqhkiG9w0BAQUFAAOCAQEAhhE0JJeFmTKt
oW3fWMKcIrRkle1xRmn0eWYlwHCw6OQhbywA8jp/btZngxTdce4z2OHzIr9PjD9m
CbyWIi5Y+Iha6w+T6Ac3gc2uWOtgQMB9a28pfaK/Z6ib4EpoIiKK2fmCgrojnFTf
CkbTJcuUTH2ASkBvUkVjD8CElSCMQVByjZWxa3fjxMKIhPO7q41bP6+E1Zp+H1yF
g6ZTWUHQhSSS/SN9kK8oMB5W4NwxVJmXnj48xuXJRuV5hRFuq6GshIHqsCDHpOpp
8l/hCE468Tp0d9OdsDV5Mc4peLjmejL8wA07MJZjM+ta0pB9zrrZWcX/KezmZ/ew
iKrHiudrpQ==
-----END CERTIFICATE-----
